; ModuleID = '29/1522.c'
source_filename = "29/1522.c"
target datalayout = "e-m:e-p270:32:32-p271:32:32-p272:64:64-i64:64-f80:128-n8:16:32:64-S128"
target triple = "x86_64-pc-linux-gnu"

@.str = private unnamed_addr constant [3 x i8] c"%d\00", align 1
@.str.1 = private unnamed_addr constant [7 x i8] c"%.3lf\0A\00", align 1

; Function Attrs: noinline nounwind uwtable
define dso_local i32 @main() #0 {
  %1 = alloca i32, align 4
  %2 = alloca i32, align 4
  %3 = alloca i32, align 4
  %4 = alloca i32, align 4
  %5 = alloca i32, align 4
  %6 = alloca double, align 8
  %7 = alloca double, align 8
  %8 = alloca double, align 8
  store i32 0, i32* %1, align 4
  %9 = call i32 (i8*, ...) @__isoc99_scanf(i8* getelementptr inbounds ([3 x i8], [3 x i8]* @.str, i64 0, i64 0), i32* %2)
  store i32 0, i32* %5, align 4
  br label %10

10:                                               ; preds = %38, %0
  %11 = load i32, i32* %5, align 4
  %12 = load i32, i32* %2, align 4
  %13 = icmp slt i32 %11, %12
  br i1 %13, label %14, label %41

14:                                               ; preds = %10
  %15 = call i32 (i8*, ...) @__isoc99_scanf(i8* getelementptr inbounds ([3 x i8], [3 x i8]* @.str, i64 0, i64 0), i32* %3)
  store double 1.000000e+00, double* %6, align 8
  store double 2.000000e+00, double* %7, align 8
  store double 0.000000e+00, double* %8, align 8
  store i32 0, i32* %4, align 4
  br label %16

16:                                               ; preds = %32, %14
  %17 = load i32, i32* %4, align 4
  %18 = load i32, i32* %3, align 4
  %19 = icmp slt i32 %17, %18
  br i1 %19, label %20, label %35

20:                                               ; preds = %16
  %21 = load double, double* %7, align 8
  %22 = load double, double* %6, align 8
  %23 = fdiv double %21, %22
  %24 = load double, double* %8, align 8
  %25 = fadd double %24, %23
  store double %25, double* %8, align 8
  %26 = load double, double* %6, align 8
  %27 = load double, double* %7, align 8
  %28 = fadd double %26, %27
  store double %28, double* %7, align 8
  %29 = load double, double* %7, align 8
  %30 = load double, double* %6, align 8
  %31 = fsub double %29, %30
  store double %31, double* %6, align 8
  br label %32

32:                                               ; preds = %20
  %33 = load i32, i32* %4, align 4
  %34 = add nsw i32 %33, 1
  store i32 %34, i32* %4, align 4
  br label %16

35:                                               ; preds = %16
  %36 = load double, double* %8, align 8
  %37 = call i32 (i8*, ...) @printf(i8* getelementptr inbounds ([7 x i8], [7 x i8]* @.str.1, i64 0, i64 0), double %36)
  br label %38

38:                                               ; preds = %35
  %39 = load i32, i32* %5, align 4
  %40 = add nsw i32 %39, 1
  store i32 %40, i32* %5, align 4
  br label %10

41:                                               ; preds = %10
  ret i32 0
}

declare dso_local i32 @__isoc99_scanf(i8*, ...) #1

declare dso_local i32 @printf(i8*, ...) #1


!llvm.module.flags = !{!0}
!llvm.ident = !{!1}

!0 = !{i32 1, !"wchar_size", i32 4}
!1 = !{!"clang version 10.0.0-4ubuntu1 "}
